(dp0
Vengine
p1
S'pdflatex'
p2
sVpackages
p3
c__builtin__
set
p4
((lp5
Vhyperref
p6
aVgerman
p7
aVlistings
p8
aVa4wide
p9
aVfontenc
p10
aVinputenc
p11
atp12
Rp13
sVfiles_with_guttermarks
p14
g4
((lp15
V/Users/hoechst/Temp/DiGaL/Report/report.tex
p16
aV/Users/hoechst/Temp/DiGaL/Report/./report.tex
p17
aS'report.tex'
p18
atp19
Rp20
sVsynctex
p21
I01
s.